; Function Attrs: mustprogress nounwind uwtable
define internal void @_ZL32auth_context_pointer_arg_destroyPv(ptr noundef %p) #5 {
entry:
  %cmp.not = icmp eq ptr %p, null
  br i1 %cmp.not, label %if.end, label %if.then

if.then:                                          ; preds = %entry
  %0 = atomicrmw sub ptr %p, i64 1 acq_rel, align 8
  %cmp.i.i = icmp eq i64 %0, 1
  br i1 %cmp.i.i, label %if.then.i, label %if.end

if.then.i:                                        ; preds = %if.then
  tail call void @_ZN17grpc_auth_contextD2Ev(ptr noundef nonnull align 8 dereferenceable(56) %p) #21
  tail call void @_ZdlPv(ptr noundef nonnull %p) #23
  br label %if.end

if.end:                                           ; preds = %if.then.i, %if.then, %entry
  ret void
}